Certificate:
    Data:
        Version: 1 (0x0)
        Serial Number: 1 (0x1)
        Signature Algorithm: sha256WithRSAEncryption
        Issuer: C=US, ST=California, L=San Francisco, O=Jupyter PKI Lab, CN=Jupyter Root CA
        Validity
            Not Before: Jun  6 11:09:06 2025 GMT
            Not After : Jun  6 11:09:06 2026 GMT
        Subject: C=US, ST=California, O=Jupyter PKI Lab, CN=jupyter-server.local
        Subject Public Key Info:
            Public Key Algorithm: rsaEncryption
                Public-Key: (2048 bit)
                Modulus:
                    00:e8:37:50:11:1a:82:19:5d:a3:f5:3a:f5:da:2d:
                    a6:1f:30:a0:b6:1f:1f:e5:78:4e:64:46:fd:87:30:
                    d2:8a:10:47:4c:d8:d1:4f:fa:a7:1d:16:55:e8:73:
                    29:f9:cd:d0:4f:91:6c:e2:7d:d5:f1:bc:20:6c:dc:
                    9c:cf:1a:df:77:10:7e:fc:2a:e2:89:94:60:2e:44:
                    88:9b:f1:4d:2b:10:a9:2d:8a:c9:71:54:47:1c:5b:
                    35:ba:90:e1:eb:e9:0a:e1:89:ee:1f:de:b3:fb:4b:
                    c8:42:32:87:59:bd:1f:3b:e8:84:6a:73:a1:c6:2f:
                    d4:b8:9e:a4:bd:db:1c:73:70:c3:c5:8f:b9:6d:6a:
                    a8:c8:d5:c0:13:e3:99:a5:38:da:58:2d:c9:1d:4a:
                    05:d5:a0:60:18:ea:05:90:ac:5f:48:b2:f3:c6:58:
                    02:b8:a5:20:88:b8:be:cb:f6:05:26:46:c0:c0:17:
                    c8:10:5d:a5:27:b6:16:f6:ab:91:e9:1f:86:0b:a9:
                    18:54:6b:74:e3:6b:53:1e:84:5a:c4:de:75:aa:59:
                    19:2a:44:1b:94:4a:2b:db:0e:a4:33:ed:84:a4:81:
                    8a:66:3b:7e:a6:dd:ab:6a:9b:27:d4:e5:50:40:5c:
                    73:1b:f9:76:38:f6:02:c2:14:1d:97:74:e0:3b:f4:
                    d9:db
                Exponent: 65537 (0x10001)
    Signature Algorithm: sha256WithRSAEncryption
    Signature Value:
        08:08:f8:1c:36:bb:14:f9:f5:82:40:57:c1:6f:c8:08:09:6f:
        cd:ad:5d:62:63:30:94:29:3e:a7:a6:22:41:fd:d9:be:89:74:
        d7:f3:40:83:d6:4d:19:bd:50:7c:6a:a1:00:ed:cf:63:e2:ac:
        9e:bc:c5:59:ee:13:02:34:05:36:7a:f1:a6:da:ec:b9:36:71:
        a2:7e:a0:52:a2:ac:63:2f:1d:94:aa:5c:c5:96:ce:d0:97:ac:
        5a:5e:66:02:f6:a4:c5:26:2d:bb:1b:12:cf:28:d6:6c:39:b5:
        ba:ed:da:a9:28:8c:5a:e1:15:95:06:22:3d:db:4f:c5:64:e2:
        4e:ad:47:a9:ff:4a:84:80:d0:7c:3e:28:14:90:89:c8:c0:2e:
        ab:7e:a9:63:f5:30:f9:39:a5:e8:6a:ff:84:24:b8:67:dc:65:
        42:44:08:a5:fa:0e:4b:a2:e6:75:a6:cf:26:bb:eb:2f:a9:d8:
        e4:1d:9c:9d:1c:ba:8a:e5:4d:a7:25:5a:9f:9a:48:6e:ca:6b:
        56:96:8b:af:dc:99:4a:b0:da:ec:ff:c2:2b:37:5b:a2:a6:76:
        43:f4:5a:a4:a8:7f:ca:23:bf:26:af:9f:a2:7e:9b:23:9c:68:
        aa:2f:30:75:8c:15:2e:7f:f5:e8:59:ba:56:23:ba:67:8b:6d:
        67:45:b3:0e
-----BEGIN CERTIFICATE-----
MIIDPTCCAiUCAQEwDQYJKoZIhvcNAQELBQAwbjELMAkGA1UEBhMCVVMxEzARBgNV
BAgMCkNhbGlmb3JuaWExFjAUBgNVBAcMDVNhbiBGcmFuY2lzY28xGDAWBgNVBAoM
D0p1cHl0ZXIgUEtJIExhYjEYMBYGA1UEAwwPSnVweXRlciBSb290IENBMB4XDTI1
MDYwNjExMDkwNloXDTI2MDYwNjExMDkwNlowWzELMAkGA1UEBhMCVVMxEzARBgNV
BAgMCkNhbGlmb3JuaWExGDAWBgNVBAoMD0p1cHl0ZXIgUEtJIExhYjEdMBsGA1UE
AwwUanVweXRlci1zZXJ2ZXIubG9jYWwwggEiMA0GCSqGSIb3DQEBAQUAA4IBDwAw
ggEKAoIBAQDoN1ARGoIZXaP1OvXaLaYfMKC2Hx/leE5kRv2HMNKKEEdM2NFP+qcd
FlXocyn5zdBPkWzifdXxvCBs3JzPGt93EH78KuKJlGAuRIib8U0rEKktislxVEcc
WzW6kOHr6Qrhie4f3rP7S8hCModZvR876IRqc6HGL9S4nqS92xxzcMPFj7ltaqjI
1cAT45mlONpYLckdSgXVoGAY6gWQrF9IsvPGWAK4pSCIuL7L9gUmRsDAF8gQXaUn
thb2q5HpH4YLqRhUa3Tja1MehFrE3nWqWRkqRBuUSivbDqQz7YSkgYpmO36m3atq
myfU5VBAXHMb+XY49gLCFB2XdOA79NnbAgMBAAEwDQYJKoZIhvcNAQELBQADggEB
AAgI+Bw2uxT59YJAV8FvyAgJb82tXWJjMJQpPqemIkH92b6JdNfzQIPWTRm9UHxq
oQDtz2PirJ68xVnuEwI0BTZ68aba7Lk2caJ+oFKirGMvHZSqXMWWztCXrFpeZgL2
pMUmLbsbEs8o1mw5tbrt2qkojFrhFZUGIj3bT8Vk4k6tR6n/SoSA0Hw+KBSQicjA
Lqt+qWP1MPk5pehq/4QkuGfcZUJECKX6Dkui5nWmzya76y+p2OQdnJ0cuorlTacl
Wp+aSG7Ka1aWi6/cmUqw2uz/wis3W6KmdkP0WqSof8ojvyavn6J+myOcaKovMHWM
FS5/9ehZulYjumeLbWdFsw4=
-----END CERTIFICATE-----
