Certificate:
    Data:
        Version: 1 (0x0)
        Serial Number: 2 (0x2)
        Signature Algorithm: sha256WithRSAEncryption
        Issuer: C=US, ST=California, L=San Francisco, O=Jupyter PKI Lab, CN=Jupyter Root CA
        Validity
            Not Before: Jun  6 11:09:11 2025 GMT
            Not After : Jun  6 11:09:11 2026 GMT
        Subject: C=US, ST=California, O=Exercise Lab, CN=exercise.local
        Subject Public Key Info:
            Public Key Algorithm: rsaEncryption
                Public-Key: (2048 bit)
                Modulus:
                    00:bf:ca:59:38:b7:79:ed:22:89:64:1e:22:32:95:
                    79:64:d3:ee:17:4d:f2:db:62:f1:ea:4e:2f:c9:d0:
                    f4:2c:f6:c4:2d:0a:97:6c:e8:a4:4b:89:99:cc:2c:
                    74:2d:c2:1b:fc:2c:3e:a9:ed:26:9c:ae:df:a6:89:
                    b4:96:f2:d7:f5:be:4c:39:b7:f5:36:20:93:c6:73:
                    6d:63:88:70:ce:dc:6b:d9:d7:75:f1:4c:ec:ea:1d:
                    46:b1:38:b1:55:d1:22:6c:16:e5:9d:be:59:ea:6a:
                    22:a6:6e:1f:ea:50:6b:bd:4d:cb:33:29:7c:72:01:
                    4f:39:a6:a4:43:47:ad:ae:72:40:2f:1b:46:36:f4:
                    97:06:18:8b:4a:41:cc:5b:f0:dc:2b:33:c5:31:67:
                    f3:e5:cf:54:93:42:34:29:e1:b1:d7:fc:16:c5:09:
                    63:ac:2a:07:26:71:7e:c6:79:0b:1e:7b:ed:65:9a:
                    82:5a:ef:ee:8b:93:13:04:cb:d9:fd:6e:dc:aa:f1:
                    fc:40:f6:3e:2d:7b:54:d2:d5:cd:69:d5:14:69:46:
                    a0:e8:d9:0a:02:e6:97:95:f1:6d:fc:78:53:6a:03:
                    57:b3:b9:44:4f:89:26:9b:76:8c:a5:8b:f5:83:48:
                    a0:2e:a2:bb:2a:b2:0a:40:28:bd:6e:e0:a4:16:bf:
                    4b:69
                Exponent: 65537 (0x10001)
    Signature Algorithm: sha256WithRSAEncryption
    Signature Value:
        1d:02:c8:fd:c2:4d:cf:93:e8:5d:f0:66:89:c6:8a:43:58:99:
        69:2a:a6:e3:cf:a5:a0:49:f1:e6:92:c7:48:3c:04:38:fd:8d:
        c1:f3:c9:94:e0:c2:73:36:5e:97:2f:82:7c:6b:79:a6:eb:4b:
        59:73:73:e0:74:e1:48:c1:07:85:b3:a4:3a:ba:48:18:d3:67:
        4b:2d:ed:32:67:cd:9d:8a:87:11:5d:a6:c2:9d:09:27:ca:54:
        dd:fe:3c:bb:19:8d:38:d2:2e:22:68:9b:dd:bc:92:13:c2:f5:
        85:1f:04:ef:63:7b:6a:6d:d7:c4:70:12:be:60:3e:9d:7d:74:
        09:9c:bf:68:ce:8a:b9:dc:10:82:60:a1:b0:0c:09:7f:74:a8:
        1c:fe:54:e5:2d:87:3d:0c:80:41:eb:86:b4:ba:87:5e:46:b4:
        6e:15:cc:dc:9d:5c:e9:8c:9c:d8:dc:12:ba:82:03:cd:3f:ce:
        5c:bc:5f:7f:87:74:2c:73:d7:70:a4:e7:a1:86:86:18:37:f1:
        0b:25:b3:cd:96:30:5e:de:ab:4b:aa:18:68:8d:3a:70:13:f4:
        5a:ba:b7:61:53:3b:06:ea:bc:3a:89:b8:39:8a:9d:45:60:f4:
        7d:c0:fd:1e:77:c6:d7:e2:6f:11:5d:68:9e:6f:01:43:7f:bb:
        db:d3:1f:4e
-----BEGIN CERTIFICATE-----
MIIDNDCCAhwCAQIwDQYJKoZIhvcNAQELBQAwbjELMAkGA1UEBhMCVVMxEzARBgNV
BAgMCkNhbGlmb3JuaWExFjAUBgNVBAcMDVNhbiBGcmFuY2lzY28xGDAWBgNVBAoM
D0p1cHl0ZXIgUEtJIExhYjEYMBYGA1UEAwwPSnVweXRlciBSb290IENBMB4XDTI1
MDYwNjExMDkxMVoXDTI2MDYwNjExMDkxMVowUjELMAkGA1UEBhMCVVMxEzARBgNV
BAgMCkNhbGlmb3JuaWExFTATBgNVBAoMDEV4ZXJjaXNlIExhYjEXMBUGA1UEAwwO
ZXhlcmNpc2UubG9jYWwwggEiMA0GCSqGSIb3DQEBAQUAA4IBDwAwggEKAoIBAQC/
ylk4t3ntIolkHiIylXlk0+4XTfLbYvHqTi/J0PQs9sQtCpds6KRLiZnMLHQtwhv8
LD6p7Sacrt+mibSW8tf1vkw5t/U2IJPGc21jiHDO3GvZ13XxTOzqHUaxOLFV0SJs
FuWdvlnqaiKmbh/qUGu9TcszKXxyAU85pqRDR62uckAvG0Y29JcGGItKQcxb8Nwr
M8UxZ/Plz1STQjQp4bHX/BbFCWOsKgcmcX7GeQsee+1lmoJa7+6LkxMEy9n9btyq
8fxA9j4te1TS1c1p1RRpRqDo2QoC5peV8W38eFNqA1ezuURPiSabdoyli/WDSKAu
orsqsgpAKL1u4KQWv0tpAgMBAAEwDQYJKoZIhvcNAQELBQADggEBAB0CyP3CTc+T
6F3wZonGikNYmWkqpuPPpaBJ8eaSx0g8BDj9jcHzyZTgwnM2XpcvgnxreabrS1lz
c+B04UjBB4WzpDq6SBjTZ0st7TJnzZ2KhxFdpsKdCSfKVN3+PLsZjTjSLiJom928
khPC9YUfBO9je2pt18RwEr5gPp19dAmcv2jOirncEIJgobAMCX90qBz+VOUthz0M
gEHrhrS6h15GtG4VzNydXOmMnNjcErqCA80/zly8X3+HdCxz13Ck56GGhhg38Qsl
s82WMF7eq0uqGGiNOnAT9Fq6t2FTOwbqvDqJuDmKnUVg9H3A/R53xtfibxFdaJ5v
AUN/u9vTH04=
-----END CERTIFICATE-----
